; Function Attrs: nofree norecurse nosync nounwind memory(argmem: read) uwtable
define internal range(i32 -1, 3) i32 @pg_uhc_verifychar(ptr noundef readonly captures(none) %0, i32 noundef %1) #5 {
  %3 = load i8, ptr %0, align 1
  %.not.i = icmp slt i8 %3, 0
  %..i = select i1 %.not.i, i32 2, i32 1
  %4 = icmp slt i32 %1, %..i
  br i1 %4, label %.loopexit, label %5

5:                                                ; preds = %2
  %6 = icmp eq i8 %3, -115
  br i1 %6, label %7, label %.preheader

7:                                                ; preds = %5
  %8 = getelementptr inbounds nuw i8, ptr %0, i64 1
  %9 = load i8, ptr %8, align 1
  %10 = icmp eq i8 %9, 32
  br i1 %10, label %.loopexit, label %.preheader

.preheader:                                       ; preds = %7, %5
  br label %11

11:                                               ; preds = %.preheader, %12
  %.010 = phi ptr [ %13, %12 ], [ %0, %.preheader ]
  %.09 = phi i1 [ false, %12 ], [ %.not.i, %.preheader ]
  br i1 %.09, label %12, label %.loopexit

12:                                               ; preds = %11
  %13 = getelementptr inbounds nuw i8, ptr %.010, i64 1
  %14 = load i8, ptr %13, align 1
  %15 = icmp eq i8 %14, 0
  br i1 %15, label %.loopexit, label %11, !llvm.loop !24

.loopexit:                                        ; preds = %11, %12, %7, %2
  %.0 = phi i32 [ -1, %2 ], [ -1, %7 ], [ %..i, %11 ], [ -1, %12 ]
  ret i32 %.0
}